target datalayout = "e-m:e-p270:32:32-p271:32:32-p272:64:64-i64:64-i128:128-f80:128-n8:16:32:64-S128"
target triple = "x86_64-pc-linux-gnu"

%struct._xdot_op = type { i32, %union.anon, ptr }
%union.anon = type { %struct.xdot_color }
%struct.xdot_color = type { i32, %union.anon.0 }
%union.anon.0 = type { %struct.xdot_radial_grad }
%struct.xdot_radial_grad = type { double, double, double, double, double, double, i32, ptr }
%struct.xdot = type { i64, i64, ptr, ptr, i32 }
%struct.xdot_text = type { double, double, i32, double, ptr }
%struct.xdot_font = type { double, ptr }
%struct.xdot_image = type { %struct.xdot_rect, ptr }
%struct.xdot_rect = type { double, double, double, double }
%struct.xdot_polyline = type { i64, ptr }
%struct.xdot_linear_grad = type { double, double, double, double, i32, ptr }
%struct.xdot_color_stop = type { float, ptr }

; Function Attrs: nounwind uwtable
define void @freeXDotColor(ptr noundef %0) #0 {
  %2 = alloca ptr, align 8
  %3 = alloca i32, align 4
  store ptr %0, ptr %2, align 8, !tbaa !8
  call void @llvm.lifetime.start.p0(i64 4, ptr %3) #13
  %4 = load ptr, ptr %2, align 8, !tbaa !8
  %5 = getelementptr inbounds nuw %struct.xdot_color, ptr %4, i32 0, i32 0
  %6 = load i32, ptr %5, align 8, !tbaa !32
  %7 = icmp eq i32 %6, 1
  br i1 %7, label %8, label %34

8:                                                ; preds = %1
  store i32 0, ptr %3, align 4, !tbaa !18
  br label %9

9:                                                ; preds = %26, %8
  %10 = load i32, ptr %3, align 4, !tbaa !18
  %11 = load ptr, ptr %2, align 8, !tbaa !8
  %12 = getelementptr inbounds nuw %struct.xdot_color, ptr %11, i32 0, i32 1
  %13 = getelementptr inbounds nuw %struct.xdot_linear_grad, ptr %12, i32 0, i32 4
  %14 = load i32, ptr %13, align 8, !tbaa !19
  %15 = icmp slt i32 %10, %14
  br i1 %15, label %16, label %29

16:                                               ; preds = %9
  %17 = load ptr, ptr %2, align 8, !tbaa !8
  %18 = getelementptr inbounds nuw %struct.xdot_color, ptr %17, i32 0, i32 1
  %19 = getelementptr inbounds nuw %struct.xdot_linear_grad, ptr %18, i32 0, i32 5
  %20 = load ptr, ptr %19, align 8, !tbaa !19
  %21 = load i32, ptr %3, align 4, !tbaa !18
  %22 = sext i32 %21 to i64
  %23 = getelementptr inbounds %struct.xdot_color_stop, ptr %20, i64 %22
  %24 = getelementptr inbounds nuw %struct.xdot_color_stop, ptr %23, i32 0, i32 1
  %25 = load ptr, ptr %24, align 8, !tbaa !62
  call void @free(ptr noundef %25) #13
  br label %26

26:                                               ; preds = %16
  %27 = load i32, ptr %3, align 4, !tbaa !18
  %28 = add nsw i32 %27, 1
  store i32 %28, ptr %3, align 4, !tbaa !18
  br label %9, !llvm.loop !63

29:                                               ; preds = %9
  %30 = load ptr, ptr %2, align 8, !tbaa !8
  %31 = getelementptr inbounds nuw %struct.xdot_color, ptr %30, i32 0, i32 1
  %32 = getelementptr inbounds nuw %struct.xdot_linear_grad, ptr %31, i32 0, i32 5
  %33 = load ptr, ptr %32, align 8, !tbaa !19
  call void @free(ptr noundef %33) #13
  br label %66

34:                                               ; preds = %1
  %35 = load ptr, ptr %2, align 8, !tbaa !8
  %36 = getelementptr inbounds nuw %struct.xdot_color, ptr %35, i32 0, i32 0
  %37 = load i32, ptr %36, align 8, !tbaa !32
  %38 = icmp eq i32 %37, 2
  br i1 %38, label %39, label %65

39:                                               ; preds = %34
  store i32 0, ptr %3, align 4, !tbaa !18
  br label %40

40:                                               ; preds = %57, %39
  %41 = load i32, ptr %3, align 4, !tbaa !18
  %42 = load ptr, ptr %2, align 8, !tbaa !8
  %43 = getelementptr inbounds nuw %struct.xdot_color, ptr %42, i32 0, i32 1
  %44 = getelementptr inbounds nuw %struct.xdot_radial_grad, ptr %43, i32 0, i32 6
  %45 = load i32, ptr %44, align 8, !tbaa !19
  %46 = icmp slt i32 %41, %45
  br i1 %46, label %47, label %60

47:                                               ; preds = %40
  %48 = load ptr, ptr %2, align 8, !tbaa !8
  %49 = getelementptr inbounds nuw %struct.xdot_color, ptr %48, i32 0, i32 1
  %50 = getelementptr inbounds nuw %struct.xdot_radial_grad, ptr %49, i32 0, i32 7
  %51 = load ptr, ptr %50, align 8, !tbaa !19
  %52 = load i32, ptr %3, align 4, !tbaa !18
  %53 = sext i32 %52 to i64
  %54 = getelementptr inbounds %struct.xdot_color_stop, ptr %51, i64 %53
  %55 = getelementptr inbounds nuw %struct.xdot_color_stop, ptr %54, i32 0, i32 1
  %56 = load ptr, ptr %55, align 8, !tbaa !62
  call void @free(ptr noundef %56) #13
  br label %57

57:                                               ; preds = %47
  %58 = load i32, ptr %3, align 4, !tbaa !18
  %59 = add nsw i32 %58, 1
  store i32 %59, ptr %3, align 4, !tbaa !18
  br label %40, !llvm.loop !64

60:                                               ; preds = %40
  %61 = load ptr, ptr %2, align 8, !tbaa !8
  %62 = getelementptr inbounds nuw %struct.xdot_color, ptr %61, i32 0, i32 1
  %63 = getelementptr inbounds nuw %struct.xdot_radial_grad, ptr %62, i32 0, i32 7
  %64 = load ptr, ptr %63, align 8, !tbaa !19
  call void @free(ptr noundef %64) #13
  br label %65

65:                                               ; preds = %60, %34
  br label %66

66:                                               ; preds = %65, %29
  call void @llvm.lifetime.end.p0(i64 4, ptr %3) #13
  ret void
}

; Function Attrs: nounwind uwtable
define internal void @freeXOpData(ptr noundef %0) #0 {
  %2 = alloca ptr, align 8
  store ptr %0, ptr %2, align 8, !tbaa !25
  %3 = load ptr, ptr %2, align 8, !tbaa !25
  %4 = getelementptr inbounds nuw %struct._xdot_op, ptr %3, i32 0, i32 0
  %5 = load i32, ptr %4, align 8, !tbaa !29
  switch i32 %5, label %47 [
    i32 2, label %6
    i32 3, label %6
    i32 4, label %11
    i32 5, label %11
    i32 6, label %16
    i32 7, label %21
    i32 8, label %26
    i32 9, label %26
    i32 13, label %30
    i32 14, label %30
    i32 10, label %33
    i32 11, label %38
    i32 12, label %42
  ]

6:                                                ; preds = %1, %1
  %7 = load ptr, ptr %2, align 8, !tbaa !25
  %8 = getelementptr inbounds nuw %struct._xdot_op, ptr %7, i32 0, i32 1
  %9 = getelementptr inbounds nuw %struct.xdot_polyline, ptr %8, i32 0, i32 1
  %10 = load ptr, ptr %9, align 8, !tbaa !19
  call void @free(ptr noundef %10) #13
  br label %48

11:                                               ; preds = %1, %1
  %12 = load ptr, ptr %2, align 8, !tbaa !25
  %13 = getelementptr inbounds nuw %struct._xdot_op, ptr %12, i32 0, i32 1
  %14 = getelementptr inbounds nuw %struct.xdot_polyline, ptr %13, i32 0, i32 1
  %15 = load ptr, ptr %14, align 8, !tbaa !19
  call void @free(ptr noundef %15) #13
  br label %48

16:                                               ; preds = %1
  %17 = load ptr, ptr %2, align 8, !tbaa !25
  %18 = getelementptr inbounds nuw %struct._xdot_op, ptr %17, i32 0, i32 1
  %19 = getelementptr inbounds nuw %struct.xdot_polyline, ptr %18, i32 0, i32 1
  %20 = load ptr, ptr %19, align 8, !tbaa !19
  call void @free(ptr noundef %20) #13
  br label %48

21:                                               ; preds = %1
  %22 = load ptr, ptr %2, align 8, !tbaa !25
  %23 = getelementptr inbounds nuw %struct._xdot_op, ptr %22, i32 0, i32 1
  %24 = getelementptr inbounds nuw %struct.xdot_text, ptr %23, i32 0, i32 4
  %25 = load ptr, ptr %24, align 8, !tbaa !19
  call void @free(ptr noundef %25) #13
  br label %48

26:                                               ; preds = %1, %1
  %27 = load ptr, ptr %2, align 8, !tbaa !25
  %28 = getelementptr inbounds nuw %struct._xdot_op, ptr %27, i32 0, i32 1
  %29 = load ptr, ptr %28, align 8, !tbaa !19
  call void @free(ptr noundef %29) #13
  br label %48

30:                                               ; preds = %1, %1
  %31 = load ptr, ptr %2, align 8, !tbaa !25
  %32 = getelementptr inbounds nuw %struct._xdot_op, ptr %31, i32 0, i32 1
  call void @freeXDotColor(ptr noundef %32)
  br label %48

33:                                               ; preds = %1
  %34 = load ptr, ptr %2, align 8, !tbaa !25
  %35 = getelementptr inbounds nuw %struct._xdot_op, ptr %34, i32 0, i32 1
  %36 = getelementptr inbounds nuw %struct.xdot_font, ptr %35, i32 0, i32 1
  %37 = load ptr, ptr %36, align 8, !tbaa !19
  call void @free(ptr noundef %37) #13
  br label %48

38:                                               ; preds = %1
  %39 = load ptr, ptr %2, align 8, !tbaa !25
  %40 = getelementptr inbounds nuw %struct._xdot_op, ptr %39, i32 0, i32 1
  %41 = load ptr, ptr %40, align 8, !tbaa !19
  call void @free(ptr noundef %41) #13
  br label %48

42:                                               ; preds = %1
  %43 = load ptr, ptr %2, align 8, !tbaa !25
  %44 = getelementptr inbounds nuw %struct._xdot_op, ptr %43, i32 0, i32 1
  %45 = getelementptr inbounds nuw %struct.xdot_image, ptr %44, i32 0, i32 1
  %46 = load ptr, ptr %45, align 8, !tbaa !19
  call void @free(ptr noundef %46) #13
  br label %48

47:                                               ; preds = %1
  br label %48

48:                                               ; preds = %47, %42, %38, %33, %30, %26, %21, %16, %11, %6
  ret void
}

; Function Attrs: nounwind uwtable
define void @freeXDot(ptr noundef %0) #0 {
  %2 = alloca ptr, align 8
  %3 = alloca ptr, align 8
  %4 = alloca ptr, align 8
  %5 = alloca ptr, align 8
  %6 = alloca i32, align 4
  %7 = alloca i64, align 8
  store ptr %0, ptr %2, align 8, !tbaa !8
  call void @llvm.lifetime.start.p0(i64 8, ptr %3) #13
  call void @llvm.lifetime.start.p0(i64 8, ptr %4) #13
  call void @llvm.lifetime.start.p0(i64 8, ptr %5) #13
  %8 = load ptr, ptr %2, align 8, !tbaa !8
  %9 = getelementptr inbounds nuw %struct.xdot, ptr %8, i32 0, i32 3
  %10 = load ptr, ptr %9, align 8, !tbaa !36
  store ptr %10, ptr %5, align 8, !tbaa !8
  %11 = load ptr, ptr %2, align 8, !tbaa !8
  %12 = icmp ne ptr %11, null
  br i1 %12, label %14, label %13

13:                                               ; preds = %1
  store i32 1, ptr %6, align 4
  br label %46

14:                                               ; preds = %1
  %15 = load ptr, ptr %2, align 8, !tbaa !8
  %16 = getelementptr inbounds nuw %struct.xdot, ptr %15, i32 0, i32 2
  %17 = load ptr, ptr %16, align 8, !tbaa !16
  store ptr %17, ptr %4, align 8, !tbaa !3
  call void @llvm.lifetime.start.p0(i64 8, ptr %7) #13
  store i64 0, ptr %7, align 8, !tbaa !9
  br label %18

18:                                               ; preds = %40, %14
  %19 = load i64, ptr %7, align 8, !tbaa !9
  %20 = load ptr, ptr %2, align 8, !tbaa !8
  %21 = getelementptr inbounds nuw %struct.xdot, ptr %20, i32 0, i32 0
  %22 = load i64, ptr %21, align 8, !tbaa !15
  %23 = icmp ult i64 %19, %22
  br i1 %23, label %25, label %24

24:                                               ; preds = %18
  store i32 2, ptr %6, align 4
  call void @llvm.lifetime.end.p0(i64 8, ptr %7) #13
  br label %43

25:                                               ; preds = %18
  %26 = load ptr, ptr %4, align 8, !tbaa !3
  %27 = load i64, ptr %7, align 8, !tbaa !9
  %28 = load ptr, ptr %2, align 8, !tbaa !8
  %29 = getelementptr inbounds nuw %struct.xdot, ptr %28, i32 0, i32 1
  %30 = load i64, ptr %29, align 8, !tbaa !11
  %31 = mul i64 %27, %30
  %32 = getelementptr inbounds nuw i8, ptr %26, i64 %31
  store ptr %32, ptr %3, align 8, !tbaa !25
  %33 = load ptr, ptr %5, align 8, !tbaa !8
  %34 = icmp ne ptr %33, null
  br i1 %34, label %35, label %38

35:                                               ; preds = %25
  %36 = load ptr, ptr %5, align 8, !tbaa !8
  %37 = load ptr, ptr %3, align 8, !tbaa !25
  call void %36(ptr noundef %37)
  br label %38

38:                                               ; preds = %35, %25
  %39 = load ptr, ptr %3, align 8, !tbaa !25
  call void @freeXOpData(ptr noundef %39)
  br label %40

40:                                               ; preds = %38
  %41 = load i64, ptr %7, align 8, !tbaa !9
  %42 = add i64 %41, 1
  store i64 %42, ptr %7, align 8, !tbaa !9
  br label %18, !llvm.loop !37

43:                                               ; preds = %24
  %44 = load ptr, ptr %4, align 8, !tbaa !3
  call void @free(ptr noundef %44) #13
  %45 = load ptr, ptr %2, align 8, !tbaa !8
  call void @free(ptr noundef %45) #13
  store i32 0, ptr %6, align 4
  br label %46

46:                                               ; preds = %43, %13
  call void @llvm.lifetime.end.p0(i64 8, ptr %5) #13
  call void @llvm.lifetime.end.p0(i64 8, ptr %4) #13
  call void @llvm.lifetime.end.p0(i64 8, ptr %3) #13
  %47 = load i32, ptr %6, align 4
  switch i32 %47, label %49 [
    i32 0, label %48
    i32 1, label %48
  ]

48:                                               ; preds = %46, %46
  ret void

49:                                               ; preds = %46
  unreachable
}