; Function Attrs: nounwind uwtable
define void @freeXDot(ptr noundef captures(none) %0) local_unnamed_addr #0 {
  %2 = getelementptr inbounds nuw i8, ptr %0, i64 24
  %3 = load ptr, ptr %2, align 8, !tbaa !49
  %4 = getelementptr inbounds nuw i8, ptr %0, i64 16
  %5 = load ptr, ptr %4, align 8, !tbaa !14
  %6 = load i64, ptr %0, align 8, !tbaa !13
  %.not = icmp eq i64 %6, 0
  br i1 %.not, label %._crit_edge, label %.lr.ph

.lr.ph:                                           ; preds = %1
  %7 = getelementptr inbounds nuw i8, ptr %0, i64 8
  %.not16 = icmp eq ptr %3, null
  br label %8

8:                                                ; preds = %.lr.ph, %freeXOpData.exit
  %.018 = phi i64 [ 0, %.lr.ph ], [ %57, %freeXOpData.exit ]
  %9 = load i64, ptr %7, align 8, !tbaa !8
  %10 = mul i64 %9, %.018
  %11 = getelementptr inbounds nuw i8, ptr %5, i64 %10
  br i1 %.not16, label %13, label %12

12:                                               ; preds = %8
  tail call void %3(ptr noundef %11) #20
  br label %13

13:                                               ; preds = %12, %8
  %14 = load i32, ptr %11, align 8, !tbaa !18
  switch i32 %14, label %freeXOpData.exit [
    i32 2, label %15
    i32 3, label %15
    i32 4, label %17
    i32 5, label %17
    i32 6, label %19
    i32 7, label %21
    i32 8, label %23
    i32 9, label %23
    i32 13, label %25
    i32 14, label %25
    i32 10, label %51
    i32 11, label %53
    i32 12, label %55
  ]

15:                                               ; preds = %13, %13
  %16 = getelementptr inbounds nuw i8, ptr %11, i64 16
  br label %freeXDotColor.exit.sink.split.i

17:                                               ; preds = %13, %13
  %18 = getelementptr inbounds nuw i8, ptr %11, i64 16
  br label %freeXDotColor.exit.sink.split.i

19:                                               ; preds = %13
  %20 = getelementptr inbounds nuw i8, ptr %11, i64 16
  br label %freeXDotColor.exit.sink.split.i

21:                                               ; preds = %13
  %22 = getelementptr inbounds nuw i8, ptr %11, i64 40
  br label %freeXDotColor.exit.sink.split.i

23:                                               ; preds = %13, %13
  %24 = getelementptr inbounds nuw i8, ptr %11, i64 8
  br label %freeXDotColor.exit.sink.split.i

25:                                               ; preds = %13, %13
  %26 = getelementptr inbounds nuw i8, ptr %11, i64 8
  %27 = load i32, ptr %26, align 8, !tbaa !28
  switch i32 %27, label %freeXOpData.exit [
    i32 1, label %.preheader.i.i
    i32 2, label %.preheader14.i.i
  ]

.preheader14.i.i:                                 ; preds = %25
  %28 = getelementptr inbounds nuw i8, ptr %11, i64 64
  %29 = load i32, ptr %28, align 8, !tbaa !15
  %30 = icmp sgt i32 %29, 0
  br i1 %30, label %.lr.ph.i.i, label %.sink.split.i.i

.lr.ph.i.i:                                       ; preds = %.preheader14.i.i
  %31 = getelementptr inbounds nuw i8, ptr %11, i64 72
  br label %43

.preheader.i.i:                                   ; preds = %25
  %32 = getelementptr inbounds nuw i8, ptr %11, i64 48
  %33 = load i32, ptr %32, align 8, !tbaa !15
  %34 = icmp sgt i32 %33, 0
  br i1 %34, label %.lr.ph17.i.i, label %.sink.split.i.i

.lr.ph17.i.i:                                     ; preds = %.preheader.i.i
  %35 = getelementptr inbounds nuw i8, ptr %11, i64 56
  br label %36

36:                                               ; preds = %36, %.lr.ph17.i.i
  %indvars.iv20.i.i = phi i64 [ 0, %.lr.ph17.i.i ], [ %indvars.iv.next21.i.i, %36 ]
  %37 = load ptr, ptr %35, align 8, !tbaa !15
  %38 = getelementptr inbounds nuw %struct.xdot_color_stop, ptr %37, i64 %indvars.iv20.i.i, i32 1
  %39 = load ptr, ptr %38, align 8, !tbaa !50
  tail call void @free(ptr noundef %39) #20
  %indvars.iv.next21.i.i = add nuw nsw i64 %indvars.iv20.i.i, 1
  %40 = load i32, ptr %32, align 8, !tbaa !15
  %41 = sext i32 %40 to i64
  %42 = icmp slt i64 %indvars.iv.next21.i.i, %41
  br i1 %42, label %36, label %.sink.split.i.i, !llvm.loop !53

43:                                               ; preds = %43, %.lr.ph.i.i
  %indvars.iv.i.i = phi i64 [ 0, %.lr.ph.i.i ], [ %indvars.iv.next.i.i, %43 ]
  %44 = load ptr, ptr %31, align 8, !tbaa !15
  %45 = getelementptr inbounds nuw %struct.xdot_color_stop, ptr %44, i64 %indvars.iv.i.i, i32 1
  %46 = load ptr, ptr %45, align 8, !tbaa !50
  tail call void @free(ptr noundef %46) #20
  %indvars.iv.next.i.i = add nuw nsw i64 %indvars.iv.i.i, 1
  %47 = load i32, ptr %28, align 8, !tbaa !15
  %48 = sext i32 %47 to i64
  %49 = icmp slt i64 %indvars.iv.next.i.i, %48
  br i1 %49, label %43, label %.sink.split.i.i, !llvm.loop !54

.sink.split.i.i:                                  ; preds = %43, %36, %.preheader.i.i, %.preheader14.i.i
  %.sink.i.i = phi i64 [ 48, %.preheader.i.i ], [ 64, %.preheader14.i.i ], [ 48, %36 ], [ 64, %43 ]
  %50 = getelementptr inbounds nuw i8, ptr %26, i64 %.sink.i.i
  br label %freeXDotColor.exit.sink.split.i

51:                                               ; preds = %13
  %52 = getelementptr inbounds nuw i8, ptr %11, i64 16
  br label %freeXDotColor.exit.sink.split.i

53:                                               ; preds = %13
  %54 = getelementptr inbounds nuw i8, ptr %11, i64 8
  br label %freeXDotColor.exit.sink.split.i

55:                                               ; preds = %13
  %56 = getelementptr inbounds nuw i8, ptr %11, i64 40
  br label %freeXDotColor.exit.sink.split.i

freeXDotColor.exit.sink.split.i:                  ; preds = %55, %53, %51, %.sink.split.i.i, %23, %21, %19, %17, %15
  %.sink.in.i = phi ptr [ %50, %.sink.split.i.i ], [ %56, %55 ], [ %54, %53 ], [ %52, %51 ], [ %24, %23 ], [ %22, %21 ], [ %20, %19 ], [ %18, %17 ], [ %16, %15 ]
  %.sink.i = load ptr, ptr %.sink.in.i, align 8, !tbaa !15
  tail call void @free(ptr noundef %.sink.i) #20
  br label %freeXOpData.exit

freeXOpData.exit:                                 ; preds = %13, %25, %freeXDotColor.exit.sink.split.i
  %57 = add nuw i64 %.018, 1
  %58 = load i64, ptr %0, align 8, !tbaa !13
  %59 = icmp ult i64 %57, %58
  br i1 %59, label %8, label %._crit_edge, !llvm.loop !55

._crit_edge:                                      ; preds = %freeXOpData.exit, %1
  tail call void @free(ptr noundef %5) #20
  tail call void @free(ptr noundef nonnull %0) #20
  ret void
}